ARM GAS  C:\Users\lundc\AppData\Local\Temp\ccdKBqti.s 			page 1


   1              		.syntax unified
   2              		.cpu cortex-m3
   3              		.fpu softvfp
   4              		.eabi_attribute 20, 1
   5              		.eabi_attribute 21, 1
   6              		.eabi_attribute 23, 3
   7              		.eabi_attribute 24, 1
   8              		.eabi_attribute 25, 1
   9              		.eabi_attribute 26, 1
  10              		.eabi_attribute 30, 1
  11              		.eabi_attribute 34, 1
  12              		.eabi_attribute 18, 4
  13              		.thumb
  14              		.syntax unified
  15              		.file	"main.c"
  16              		.text
  17              	.Ltext0:
  18              		.cfi_sections	.debug_frame
  19              		.section	.text.ISR_pin_1_handler,"ax",%progbits
  20              		.align	2
  21              		.global	ISR_pin_1_handler
  22              		.thumb
  23              		.thumb_func
  24              		.type	ISR_pin_1_handler, %function
  25              	ISR_pin_1_handler:
  26              	.LFB65:
  27              		.file 1 "weight.h"
   1:weight.h      **** // Headers and libraries
   2:weight.h      **** #include "project.h"
   3:weight.h      **** #include <stdio.h>
   4:weight.h      **** 
   5:weight.h      **** // Global variables
   6:weight.h      **** float globalTARE = 0;
   7:weight.h      **** float globalWeight = 0;
   8:weight.h      **** const int loop = 10;
   9:weight.h      **** 
  10:weight.h      **** // Interrupt prototypes
  11:weight.h      **** CY_ISR_PROTO(ISR_pin_1_handler);
  12:weight.h      **** 
  13:weight.h      **** void initWeight(void)
  14:weight.h      **** {
  15:weight.h      ****     CyGlobalIntEnable; // Enable global interrupt
  16:weight.h      ****     isr_pin_1_StartEx(ISR_pin_1_handler); // Start Pin interrupt
  17:weight.h      ****     ADC_SAR_1_Start(); // Start ADC setup
  18:weight.h      ****     ADC_SAR_1_StartConvert(); // Start ADC conversion (free running mode)
  19:weight.h      **** }
  20:weight.h      **** 
  21:weight.h      **** // PSoC button interrupt to set TARE function value
  22:weight.h      **** CY_ISR(ISR_pin_1_handler)
  23:weight.h      **** {
  28              		.loc 1 23 0
  29              		.cfi_startproc
  30              		@ args = 0, pretend = 0, frame = 0
  31              		@ frame_needed = 0, uses_anonymous_args = 0
  32              		@ link register save eliminated.
  24:weight.h      ****     globalTARE = globalWeight;
  33              		.loc 1 24 0
ARM GAS  C:\Users\lundc\AppData\Local\Temp\ccdKBqti.s 			page 2


  34 0000 014B     		ldr	r3, .L2
  35 0002 5A68     		ldr	r2, [r3, #4]	@ float
  36 0004 1A60     		str	r2, [r3]	@ float
  37 0006 7047     		bx	lr
  38              	.L3:
  39              		.align	2
  40              	.L2:
  41 0008 00000000 		.word	.LANCHOR0
  42              		.cfi_endproc
  43              	.LFE65:
  44              		.size	ISR_pin_1_handler, .-ISR_pin_1_handler
  45              		.section	.text.ISR_UART_rx_handler,"ax",%progbits
  46              		.align	2
  47              		.global	ISR_UART_rx_handler
  48              		.thumb
  49              		.thumb_func
  50              		.type	ISR_UART_rx_handler, %function
  51              	ISR_UART_rx_handler:
  52              	.LFB70:
  53              		.file 2 "print.h"
   1:print.h       **** // Headers and libraries
   2:print.h       **** #include "project.h"
   3:print.h       **** #include "ssd1306.h"
   4:print.h       **** #include <stdio.h>
   5:print.h       **** 
   6:print.h       **** // Global variables
   7:print.h       **** const int addressOLED = 0x3C; //SSD1306 address: 0011 1100
   8:print.h       **** 
   9:print.h       **** CY_ISR_PROTO(ISR_UART_rx_handler);
  10:print.h       **** 
  11:print.h       **** void initPrint(void)
  12:print.h       **** {
  13:print.h       ****     CyGlobalIntEnable; // Enable global interrupt
  14:print.h       ****     I2COLED_Start(); // Start I2C for OLED setup
  15:print.h       ****     display_init(addressOLED); // Initialize OLED display
  16:print.h       ****     isr_uart_rx_StartEx(ISR_UART_rx_handler); // Start UART interrupt
  17:print.h       ****     UART_1_Start(); // Start UART for Terminal setup
  18:print.h       **** }
  19:print.h       **** 
  20:print.h       **** void handleByteReceived(uint8_t byteReceived) // Not currently in use
  21:print.h       **** {
  22:print.h       ****     switch(byteReceived)
  23:print.h       ****     {
  24:print.h       ****         case '1' :
  25:print.h       ****         {
  26:print.h       ****         }
  27:print.h       ****         break;
  28:print.h       ****         case '2' :
  29:print.h       ****         {
  30:print.h       ****         }
  31:print.h       ****         break;
  32:print.h       ****         default:
  33:print.h       ****         break;
  34:print.h       ****     }
  35:print.h       **** }
  36:print.h       **** 
  37:print.h       **** CY_ISR(ISR_UART_rx_handler) // UART interrupt routine
ARM GAS  C:\Users\lundc\AppData\Local\Temp\ccdKBqti.s 			page 3


  38:print.h       **** {
  54              		.loc 2 38 0
  55              		.cfi_startproc
  56              		@ args = 0, pretend = 0, frame = 0
  57              		@ frame_needed = 0, uses_anonymous_args = 0
  58 0000 10B5     		push	{r4, lr}
  59              		.cfi_def_cfa_offset 8
  60              		.cfi_offset 4, -8
  61              		.cfi_offset 14, -4
  39:print.h       ****     uint8_t bytesToRead = UART_1_GetRxBufferSize();
  62              		.loc 2 39 0
  63 0002 FFF7FEFF 		bl	UART_1_GetRxBufferSize
  64              	.LVL0:
  65 0006 0446     		mov	r4, r0
  66              	.LVL1:
  40:print.h       ****     while (bytesToRead > 0)
  67              		.loc 2 40 0
  68 0008 05E0     		b	.L5
  69              	.L6:
  70              	.LBB2:
  41:print.h       ****     {
  42:print.h       ****         uint8_t byteReceived = UART_1_ReadRxData();
  71              		.loc 2 42 0
  72 000a FFF7FEFF 		bl	UART_1_ReadRxData
  73              	.LVL2:
  43:print.h       ****         UART_1_WriteTxData(byteReceived);
  74              		.loc 2 43 0
  75 000e FFF7FEFF 		bl	UART_1_WriteTxData
  76              	.LVL3:
  44:print.h       ****         handleByteReceived(byteReceived);
  45:print.h       ****         bytesToRead--;
  77              		.loc 2 45 0
  78 0012 013C     		subs	r4, r4, #1
  79              	.LVL4:
  80 0014 E4B2     		uxtb	r4, r4
  81              	.LVL5:
  82              	.L5:
  83              	.LBE2:
  40:print.h       ****     {
  84              		.loc 2 40 0
  85 0016 002C     		cmp	r4, #0
  86 0018 F7D1     		bne	.L6
  46:print.h       ****     }
  47:print.h       **** }
  87              		.loc 2 47 0
  88 001a 10BD     		pop	{r4, pc}
  89              		.cfi_endproc
  90              	.LFE70:
  91              		.size	ISR_UART_rx_handler, .-ISR_UART_rx_handler
  92              		.section	.text.initWeight,"ax",%progbits
  93              		.align	2
  94              		.global	initWeight
  95              		.thumb
  96              		.thumb_func
  97              		.type	initWeight, %function
  98              	initWeight:
  99              	.LFB64:
ARM GAS  C:\Users\lundc\AppData\Local\Temp\ccdKBqti.s 			page 4


  14:weight.h      ****     CyGlobalIntEnable; // Enable global interrupt
 100              		.loc 1 14 0
 101              		.cfi_startproc
 102              		@ args = 0, pretend = 0, frame = 0
 103              		@ frame_needed = 0, uses_anonymous_args = 0
 104 0000 08B5     		push	{r3, lr}
 105              		.cfi_def_cfa_offset 8
 106              		.cfi_offset 3, -8
 107              		.cfi_offset 14, -4
  15:weight.h      ****     isr_pin_1_StartEx(ISR_pin_1_handler); // Start Pin interrupt
 108              		.loc 1 15 0
 109              		.syntax unified
 110              	@ 15 "weight.h" 1
 111 0002 62B6     		CPSIE   i
 112              	@ 0 "" 2
  16:weight.h      ****     ADC_SAR_1_Start(); // Start ADC setup
 113              		.loc 1 16 0
 114              		.thumb
 115              		.syntax unified
 116 0004 0348     		ldr	r0, .L10
 117 0006 FFF7FEFF 		bl	isr_pin_1_StartEx
 118              	.LVL6:
  17:weight.h      ****     ADC_SAR_1_StartConvert(); // Start ADC conversion (free running mode)
 119              		.loc 1 17 0
 120 000a FFF7FEFF 		bl	ADC_SAR_1_Start
 121              	.LVL7:
  18:weight.h      **** }
 122              		.loc 1 18 0
 123 000e FFF7FEFF 		bl	ADC_SAR_1_StartConvert
 124              	.LVL8:
 125 0012 08BD     		pop	{r3, pc}
 126              	.L11:
 127              		.align	2
 128              	.L10:
 129 0014 00000000 		.word	ISR_pin_1_handler
 130              		.cfi_endproc
 131              	.LFE64:
 132              		.size	initWeight, .-initWeight
 133              		.section	.text.initTARE,"ax",%progbits
 134              		.align	2
 135              		.global	initTARE
 136              		.thumb
 137              		.thumb_func
 138              		.type	initTARE, %function
 139              	initTARE:
 140              	.LFB66:
  25:weight.h      **** }
  26:weight.h      **** 
  27:weight.h      **** // Called once to zero initialize weight
  28:weight.h      **** void initTARE(void)
  29:weight.h      **** {
 141              		.loc 1 29 0
 142              		.cfi_startproc
 143              		@ args = 0, pretend = 0, frame = 0
 144              		@ frame_needed = 0, uses_anonymous_args = 0
 145              		@ link register save eliminated.
  30:weight.h      ****     globalTARE = globalWeight;
ARM GAS  C:\Users\lundc\AppData\Local\Temp\ccdKBqti.s 			page 5


 146              		.loc 1 30 0
 147 0000 014B     		ldr	r3, .L13
 148 0002 5A68     		ldr	r2, [r3, #4]	@ float
 149 0004 1A60     		str	r2, [r3]	@ float
 150 0006 7047     		bx	lr
 151              	.L14:
 152              		.align	2
 153              	.L13:
 154 0008 00000000 		.word	.LANCHOR0
 155              		.cfi_endproc
 156              	.LFE66:
 157              		.size	initTARE, .-initTARE
 158              		.global	__aeabi_ui2f
 159              		.global	__aeabi_fadd
 160              		.global	__aeabi_fdiv
 161              		.global	__aeabi_fsub
 162              		.global	__aeabi_f2d
 163              		.global	__aeabi_ddiv
 164              		.global	__aeabi_dadd
 165              		.global	__aeabi_d2f
 166              		.global	__aeabi_dcmplt
 167              		.global	__aeabi_dcmpgt
 168              		.section	.text.convertV2G,"ax",%progbits
 169              		.align	2
 170              		.global	convertV2G
 171              		.thumb
 172              		.thumb_func
 173              		.type	convertV2G, %function
 174              	convertV2G:
 175              	.LFB67:
  31:weight.h      **** }
  32:weight.h      **** 
  33:weight.h      **** // Returns a float mean measurement in kilograms
  34:weight.h      **** float convertV2G(void)
  35:weight.h      **** {
 176              		.loc 1 35 0
 177              		.cfi_startproc
 178              		@ args = 0, pretend = 0, frame = 0
 179              		@ frame_needed = 0, uses_anonymous_args = 0
 180 0000 F8B5     		push	{r3, r4, r5, r6, r7, lr}
 181              		.cfi_def_cfa_offset 24
 182              		.cfi_offset 3, -24
 183              		.cfi_offset 4, -20
 184              		.cfi_offset 5, -16
 185              		.cfi_offset 6, -12
 186              		.cfi_offset 7, -8
 187              		.cfi_offset 14, -4
 188              	.LVL9:
 189              	.LBB3:
  36:weight.h      ****     uint16_t res16 = 0; // 16-bit to fetch measurement
  37:weight.h      ****     float temp32 = 0; // 32-bit to add all measurements
  38:weight.h      ****     float res32 = 0; // 32-bit to return mean of all measurements
  39:weight.h      ****     
  40:weight.h      ****     // Loop measurement ten times to get a more stable result
  41:weight.h      ****     for (uint8_t i = 0; i < loop; i++)
 190              		.loc 1 41 0
 191 0002 0024     		movs	r4, #0
ARM GAS  C:\Users\lundc\AppData\Local\Temp\ccdKBqti.s 			page 6


 192              	.LBE3:
  38:weight.h      ****     
 193              		.loc 1 38 0
 194 0004 0025     		movs	r5, #0
  36:weight.h      ****     uint16_t res16 = 0; // 16-bit to fetch measurement
 195              		.loc 1 36 0
 196 0006 2646     		mov	r6, r4
 197              	.LBB4:
 198              		.loc 1 41 0
 199 0008 10E0     		b	.L16
 200              	.LVL10:
 201              	.L18:
  42:weight.h      ****     {
  43:weight.h      ****         // Await to fetch measurement until last conversion is complete
  44:weight.h      ****         if (ADC_SAR_1_IsEndConversion(ADC_SAR_1_WAIT_FOR_RESULT))
 202              		.loc 1 44 0
 203 000a 0020     		movs	r0, #0
 204 000c FFF7FEFF 		bl	ADC_SAR_1_IsEndConversion
 205              	.LVL11:
 206 0010 10B1     		cbz	r0, .L17
  45:weight.h      ****         {
  46:weight.h      ****             res16 = ADC_SAR_1_GetResult16(); // Fetch measurement in 16-bit
 207              		.loc 1 46 0
 208 0012 FFF7FEFF 		bl	ADC_SAR_1_GetResult16
 209              	.LVL12:
 210 0016 86B2     		uxth	r6, r0
 211              	.LVL13:
 212              	.L17:
  47:weight.h      ****             if (res16 & 0x0800) // Check for negative value in 2s-complement
  48:weight.h      ****             {
  49:weight.h      ****                 temp32 = ~res16; // Bit-flip
  50:weight.h      ****                 temp32++; // Add one
  51:weight.h      ****                 temp32 *= -1; // Multiply by -1 to create negative value
  52:weight.h      ****             }
  53:weight.h      ****         }
  54:weight.h      ****         temp32 = res16; // Push 16-bit to 32-bit float if not negative 2s-complement
 213              		.loc 1 54 0 discriminator 2
 214 0018 3046     		mov	r0, r6
 215 001a FFF7FEFF 		bl	__aeabi_ui2f
 216              	.LVL14:
  55:weight.h      ****         res32 += temp32; // Add one measurement to 32-bit float
 217              		.loc 1 55 0 discriminator 2
 218 001e 0146     		mov	r1, r0
 219 0020 2846     		mov	r0, r5
 220              	.LVL15:
 221 0022 FFF7FEFF 		bl	__aeabi_fadd
 222              	.LVL16:
 223 0026 0546     		mov	r5, r0
 224              	.LVL17:
  41:weight.h      ****     {
 225              		.loc 1 41 0 discriminator 2
 226 0028 0134     		adds	r4, r4, #1
 227              	.LVL18:
 228 002a E4B2     		uxtb	r4, r4
 229              	.LVL19:
 230              	.L16:
  41:weight.h      ****     {
ARM GAS  C:\Users\lundc\AppData\Local\Temp\ccdKBqti.s 			page 7


 231              		.loc 1 41 0 is_stmt 0 discriminator 1
 232 002c 092C     		cmp	r4, #9
 233 002e ECDD     		ble	.L18
 234              	.LBE4:
  56:weight.h      ****     }
  57:weight.h      ****     
  58:weight.h      ****     globalWeight = res32/loop; // Set globalweight to enable TARE functionality
 235              		.loc 1 58 0 is_stmt 1
 236 0030 2149     		ldr	r1, .L24+32
 237 0032 2846     		mov	r0, r5
 238 0034 FFF7FEFF 		bl	__aeabi_fdiv
 239              	.LVL20:
 240 0038 204B     		ldr	r3, .L24+36
 241 003a 5860     		str	r0, [r3, #4]	@ float
  59:weight.h      ****     
  60:weight.h      ****     res32 = (res32/loop) - globalTARE; // Adjust return value to TARE null-point value
 242              		.loc 1 60 0
 243 003c 1968     		ldr	r1, [r3]	@ float
 244 003e FFF7FEFF 		bl	__aeabi_fsub
 245              	.LVL21:
  61:weight.h      ****     
  62:weight.h      ****     // Divide by 3.245 to get precise conversion to grams
  63:weight.h      ****     // Divide by 1000 to get conversion to kilograms
  64:weight.h      ****     res32 = (res32/3.245/1000) + 0.0007;
 246              		.loc 1 64 0
 247 0042 FFF7FEFF 		bl	__aeabi_f2d
 248              	.LVL22:
 249 0046 14A3     		adr	r3, .L24
 250 0048 D3E90023 		ldrd	r2, [r3]
 251 004c FFF7FEFF 		bl	__aeabi_ddiv
 252              	.LVL23:
 253 0050 0022     		movs	r2, #0
 254 0052 1B4B     		ldr	r3, .L24+40
 255 0054 FFF7FEFF 		bl	__aeabi_ddiv
 256              	.LVL24:
 257 0058 11A3     		adr	r3, .L24+8
 258 005a D3E90023 		ldrd	r2, [r3]
 259 005e FFF7FEFF 		bl	__aeabi_dadd
 260              	.LVL25:
 261 0062 FFF7FEFF 		bl	__aeabi_d2f
 262              	.LVL26:
 263 0066 0446     		mov	r4, r0
 264              	.LVL27:
  65:weight.h      ****     
  66:weight.h      ****     if (res32 < 0.001 && res32 > -0.001)
 265              		.loc 1 66 0
 266 0068 FFF7FEFF 		bl	__aeabi_f2d
 267              	.LVL28:
 268 006c 0646     		mov	r6, r0
 269              	.LVL29:
 270 006e 0F46     		mov	r7, r1
 271 0070 0DA3     		adr	r3, .L24+16
 272 0072 D3E90023 		ldrd	r2, [r3]
 273 0076 FFF7FEFF 		bl	__aeabi_dcmplt
 274              	.LVL30:
 275 007a 40B1     		cbz	r0, .L19
 276              		.loc 1 66 0 is_stmt 0 discriminator 1
ARM GAS  C:\Users\lundc\AppData\Local\Temp\ccdKBqti.s 			page 8


 277 007c 0CA3     		adr	r3, .L24+24
 278 007e D3E90023 		ldrd	r2, [r3]
 279 0082 3046     		mov	r0, r6
 280 0084 3946     		mov	r1, r7
 281 0086 FFF7FEFF 		bl	__aeabi_dcmpgt
 282              	.LVL31:
 283 008a 00B1     		cbz	r0, .L19
  67:weight.h      ****         res32 = 0;
 284              		.loc 1 67 0 is_stmt 1
 285 008c 0024     		movs	r4, #0
 286              	.LVL32:
 287              	.L19:
  68:weight.h      **** 
  69:weight.h      ****     return res32;
  70:weight.h      **** }
 288              		.loc 1 70 0
 289 008e 2046     		mov	r0, r4
 290 0090 F8BD     		pop	{r3, r4, r5, r6, r7, pc}
 291              	.LVL33:
 292              	.L25:
 293 0092 00BFAFF3 		.align	3
 293      0080
 294              	.L24:
 295 0098 F6285C8F 		.word	-1889785610
 296 009c C2F50940 		.word	1074394562
 297 00a0 C7BAB88D 		.word	-1917273401
 298 00a4 06F0463F 		.word	1061613574
 299 00a8 FCA9F1D2 		.word	-755914244
 300 00ac 4D62503F 		.word	1062232653
 301 00b0 FCA9F1D2 		.word	-755914244
 302 00b4 4D6250BF 		.word	-1085250995
 303 00b8 00002041 		.word	1092616192
 304 00bc 00000000 		.word	.LANCHOR0
 305 00c0 00408F40 		.word	1083129856
 306              		.cfi_endproc
 307              	.LFE67:
 308              		.size	convertV2G, .-convertV2G
 309              		.section	.text.initPrint,"ax",%progbits
 310              		.align	2
 311              		.global	initPrint
 312              		.thumb
 313              		.thumb_func
 314              		.type	initPrint, %function
 315              	initPrint:
 316              	.LFB68:
  12:print.h       ****     CyGlobalIntEnable; // Enable global interrupt
 317              		.loc 2 12 0
 318              		.cfi_startproc
 319              		@ args = 0, pretend = 0, frame = 0
 320              		@ frame_needed = 0, uses_anonymous_args = 0
 321 0000 08B5     		push	{r3, lr}
 322              		.cfi_def_cfa_offset 8
 323              		.cfi_offset 3, -8
 324              		.cfi_offset 14, -4
  13:print.h       ****     I2COLED_Start(); // Start I2C for OLED setup
 325              		.loc 2 13 0
 326              		.syntax unified
ARM GAS  C:\Users\lundc\AppData\Local\Temp\ccdKBqti.s 			page 9


 327              	@ 13 "print.h" 1
 328 0002 62B6     		CPSIE   i
 329              	@ 0 "" 2
  14:print.h       ****     display_init(addressOLED); // Initialize OLED display
 330              		.loc 2 14 0
 331              		.thumb
 332              		.syntax unified
 333 0004 FFF7FEFF 		bl	I2COLED_Start
 334              	.LVL34:
  15:print.h       ****     isr_uart_rx_StartEx(ISR_UART_rx_handler); // Start UART interrupt
 335              		.loc 2 15 0
 336 0008 3C20     		movs	r0, #60
 337 000a FFF7FEFF 		bl	display_init
 338              	.LVL35:
  16:print.h       ****     UART_1_Start(); // Start UART for Terminal setup
 339              		.loc 2 16 0
 340 000e 0348     		ldr	r0, .L28
 341 0010 FFF7FEFF 		bl	isr_uart_rx_StartEx
 342              	.LVL36:
  17:print.h       **** }
 343              		.loc 2 17 0
 344 0014 FFF7FEFF 		bl	UART_1_Start
 345              	.LVL37:
 346 0018 08BD     		pop	{r3, pc}
 347              	.L29:
 348 001a 00BF     		.align	2
 349              	.L28:
 350 001c 00000000 		.word	ISR_UART_rx_handler
 351              		.cfi_endproc
 352              	.LFE68:
 353              		.size	initPrint, .-initPrint
 354              		.section	.text.handleByteReceived,"ax",%progbits
 355              		.align	2
 356              		.global	handleByteReceived
 357              		.thumb
 358              		.thumb_func
 359              		.type	handleByteReceived, %function
 360              	handleByteReceived:
 361              	.LFB69:
  21:print.h       ****     switch(byteReceived)
 362              		.loc 2 21 0
 363              		.cfi_startproc
 364              		@ args = 0, pretend = 0, frame = 0
 365              		@ frame_needed = 0, uses_anonymous_args = 0
 366              		@ link register save eliminated.
 367              	.LVL38:
 368 0000 7047     		bx	lr
 369              		.cfi_endproc
 370              	.LFE69:
 371              		.size	handleByteReceived, .-handleByteReceived
 372 0002 00BF     		.section	.text.printTerminal,"ax",%progbits
 373              		.align	2
 374              		.global	printTerminal
 375              		.thumb
 376              		.thumb_func
 377              		.type	printTerminal, %function
 378              	printTerminal:
ARM GAS  C:\Users\lundc\AppData\Local\Temp\ccdKBqti.s 			page 10


 379              	.LFB71:
  48:print.h       **** 
  49:print.h       **** // Float parameter displayed with .3 precision i kg
  50:print.h       **** void printTerminal(float res32)
  51:print.h       **** {
 380              		.loc 2 51 0
 381              		.cfi_startproc
 382              		@ args = 0, pretend = 0, frame = 256
 383              		@ frame_needed = 0, uses_anonymous_args = 0
 384              	.LVL39:
 385              		.loc 2 51 0
 386 0000 00B5     		push	{lr}
 387              		.cfi_def_cfa_offset 4
 388              		.cfi_offset 14, -4
 389 0002 C3B0     		sub	sp, sp, #268
 390              		.cfi_def_cfa_offset 272
  52:print.h       ****     char uartBuffer[256];
  53:print.h       ****     snprintf(uartBuffer, sizeof(uartBuffer), "%.3f", res32);
 391              		.loc 2 53 0
 392 0004 FFF7FEFF 		bl	__aeabi_f2d
 393              	.LVL40:
 394 0008 CDE90001 		strd	r0, [sp]
 395 000c 084A     		ldr	r2, .L33
 396 000e 4FF48071 		mov	r1, #256
 397 0012 02A8     		add	r0, sp, #8
 398 0014 FFF7FEFF 		bl	snprintf
 399              	.LVL41:
  54:print.h       ****     UART_1_PutString("Weight: ");
 400              		.loc 2 54 0
 401 0018 0648     		ldr	r0, .L33+4
 402 001a FFF7FEFF 		bl	UART_1_PutString
 403              	.LVL42:
  55:print.h       ****     UART_1_PutString(uartBuffer);
 404              		.loc 2 55 0
 405 001e 02A8     		add	r0, sp, #8
 406 0020 FFF7FEFF 		bl	UART_1_PutString
 407              	.LVL43:
  56:print.h       ****     UART_1_PutString(" kg \r\n");
 408              		.loc 2 56 0
 409 0024 0448     		ldr	r0, .L33+8
 410 0026 FFF7FEFF 		bl	UART_1_PutString
 411              	.LVL44:
  57:print.h       **** }
 412              		.loc 2 57 0
 413 002a 43B0     		add	sp, sp, #268
 414              		.cfi_def_cfa_offset 4
 415              		@ sp needed
 416 002c 5DF804FB 		ldr	pc, [sp], #4
 417              	.L34:
 418              		.align	2
 419              	.L33:
 420 0030 00000000 		.word	.LC0
 421 0034 08000000 		.word	.LC1
 422 0038 14000000 		.word	.LC2
 423              		.cfi_endproc
 424              	.LFE71:
 425              		.size	printTerminal, .-printTerminal
ARM GAS  C:\Users\lundc\AppData\Local\Temp\ccdKBqti.s 			page 11


 426              		.global	__aeabi_dmul
 427              		.section	.text.printOLED,"ax",%progbits
 428              		.align	2
 429              		.global	printOLED
 430              		.thumb
 431              		.thumb_func
 432              		.type	printOLED, %function
 433              	printOLED:
 434              	.LFB72:
  58:print.h       **** 
  59:print.h       **** // Float parameter displayed with .3 precision i kg
  60:print.h       **** void printOLED(float res32)
  61:print.h       **** {
 435              		.loc 2 61 0
 436              		.cfi_startproc
 437              		@ args = 0, pretend = 0, frame = 256
 438              		@ frame_needed = 0, uses_anonymous_args = 0
 439              	.LVL45:
 440 0000 30B5     		push	{r4, r5, lr}
 441              		.cfi_def_cfa_offset 12
 442              		.cfi_offset 4, -12
 443              		.cfi_offset 5, -8
 444              		.cfi_offset 14, -4
 445 0002 C3B0     		sub	sp, sp, #268
 446              		.cfi_def_cfa_offset 280
 447 0004 0546     		mov	r5, r0
  62:print.h       ****     // Prepare OLED
  63:print.h       ****     display_clear();
 448              		.loc 2 63 0
 449 0006 FFF7FEFF 		bl	display_clear
 450              	.LVL46:
  64:print.h       ****     display_update();
 451              		.loc 2 64 0
 452 000a FFF7FEFF 		bl	display_update
 453              	.LVL47:
  65:print.h       ****     gfx_setTextSize(1);
 454              		.loc 2 65 0
 455 000e 0120     		movs	r0, #1
 456 0010 FFF7FEFF 		bl	gfx_setTextSize
 457              	.LVL48:
  66:print.h       ****     gfx_setTextColor(WHITE);
 458              		.loc 2 66 0
 459 0014 0120     		movs	r0, #1
 460 0016 FFF7FEFF 		bl	gfx_setTextColor
 461              	.LVL49:
  67:print.h       ****     gfx_setCursor(5,0);
 462              		.loc 2 67 0
 463 001a 0021     		movs	r1, #0
 464 001c 0520     		movs	r0, #5
 465 001e FFF7FEFF 		bl	gfx_setCursor
 466              	.LVL50:
  68:print.h       ****     gfx_print("-------------------");
 467              		.loc 2 68 0
 468 0022 234C     		ldr	r4, .L37+8
 469 0024 2046     		mov	r0, r4
 470 0026 FFF7FEFF 		bl	gfx_print
 471              	.LVL51:
ARM GAS  C:\Users\lundc\AppData\Local\Temp\ccdKBqti.s 			page 12


  69:print.h       ****     gfx_setCursor(5,50);
 472              		.loc 2 69 0
 473 002a 3221     		movs	r1, #50
 474 002c 0520     		movs	r0, #5
 475 002e FFF7FEFF 		bl	gfx_setCursor
 476              	.LVL52:
  70:print.h       ****     gfx_print("-------------------");
 477              		.loc 2 70 0
 478 0032 2046     		mov	r0, r4
 479 0034 FFF7FEFF 		bl	gfx_print
 480              	.LVL53:
  71:print.h       ****     
  72:print.h       ****     // Store mass in outputbuffer
  73:print.h       ****     char outputBuffer[256];
  74:print.h       ****     snprintf(outputBuffer, sizeof(outputBuffer), "%.3f kg", res32);
 481              		.loc 2 74 0
 482 0038 2846     		mov	r0, r5
 483 003a FFF7FEFF 		bl	__aeabi_f2d
 484              	.LVL54:
 485 003e 0446     		mov	r4, r0
 486 0040 0D46     		mov	r5, r1
 487              	.LVL55:
 488 0042 CDE90045 		strd	r4, [sp]
 489 0046 1B4A     		ldr	r2, .L37+12
 490 0048 4FF48071 		mov	r1, #256
 491 004c 02A8     		add	r0, sp, #8
 492 004e FFF7FEFF 		bl	snprintf
 493              	.LVL56:
  75:print.h       ****     
  76:print.h       ****     // Display the outputbuffer in mass
  77:print.h       ****     gfx_setTextSize(2);
 494              		.loc 2 77 0
 495 0052 0220     		movs	r0, #2
 496 0054 FFF7FEFF 		bl	gfx_setTextSize
 497              	.LVL57:
  78:print.h       ****     gfx_setCursor(20,10);
 498              		.loc 2 78 0
 499 0058 0A21     		movs	r1, #10
 500 005a 1420     		movs	r0, #20
 501 005c FFF7FEFF 		bl	gfx_setCursor
 502              	.LVL58:
  79:print.h       ****     gfx_print(outputBuffer);
 503              		.loc 2 79 0
 504 0060 02A8     		add	r0, sp, #8
 505 0062 FFF7FEFF 		bl	gfx_print
 506              	.LVL59:
  80:print.h       ****     
  81:print.h       ****     // Store weight in outputbuffer
  82:print.h       ****     res32 *= 9.81; // Multiply mass by gravitational constant on earth
 507              		.loc 2 82 0
 508 0066 10A3     		adr	r3, .L37
 509 0068 D3E90023 		ldrd	r2, [r3]
 510 006c 2046     		mov	r0, r4
 511 006e 2946     		mov	r1, r5
 512 0070 FFF7FEFF 		bl	__aeabi_dmul
 513              	.LVL60:
 514 0074 FFF7FEFF 		bl	__aeabi_d2f
ARM GAS  C:\Users\lundc\AppData\Local\Temp\ccdKBqti.s 			page 13


 515              	.LVL61:
  83:print.h       ****     snprintf(outputBuffer, sizeof(outputBuffer), "%.1f N", res32);
 516              		.loc 2 83 0
 517 0078 FFF7FEFF 		bl	__aeabi_f2d
 518              	.LVL62:
 519 007c CDE90001 		strd	r0, [sp]
 520 0080 0D4A     		ldr	r2, .L37+16
 521 0082 4FF48071 		mov	r1, #256
 522 0086 02A8     		add	r0, sp, #8
 523 0088 FFF7FEFF 		bl	snprintf
 524              	.LVL63:
  84:print.h       ****     
  85:print.h       ****     // Display the outputbuffer in weight
  86:print.h       ****     gfx_setCursor(20,30);
 525              		.loc 2 86 0
 526 008c 1E21     		movs	r1, #30
 527 008e 1420     		movs	r0, #20
 528 0090 FFF7FEFF 		bl	gfx_setCursor
 529              	.LVL64:
  87:print.h       ****     gfx_print(outputBuffer);
 530              		.loc 2 87 0
 531 0094 02A8     		add	r0, sp, #8
 532 0096 FFF7FEFF 		bl	gfx_print
 533              	.LVL65:
  88:print.h       ****     
  89:print.h       ****     // Send to OLED
  90:print.h       ****     display_update();
 534              		.loc 2 90 0
 535 009a FFF7FEFF 		bl	display_update
 536              	.LVL66:
  91:print.h       **** }
 537              		.loc 2 91 0
 538 009e 43B0     		add	sp, sp, #268
 539              		.cfi_def_cfa_offset 12
 540              		@ sp needed
 541 00a0 30BD     		pop	{r4, r5, pc}
 542              	.L38:
 543 00a2 00BFAFF3 		.align	3
 543      0080
 544              	.L37:
 545 00a8 1F85EB51 		.word	1374389535
 546 00ac B89E2340 		.word	1076076216
 547 00b0 1C000000 		.word	.LC3
 548 00b4 30000000 		.word	.LC4
 549 00b8 38000000 		.word	.LC5
 550              		.cfi_endproc
 551              	.LFE72:
 552              		.size	printOLED, .-printOLED
 553              		.section	.text.startMessage,"ax",%progbits
 554              		.align	2
 555              		.global	startMessage
 556              		.thumb
 557              		.thumb_func
 558              		.type	startMessage, %function
 559              	startMessage:
 560              	.LFB73:
  92:print.h       **** 
ARM GAS  C:\Users\lundc\AppData\Local\Temp\ccdKBqti.s 			page 14


  93:print.h       **** void startMessage(void) // Not currently in use
  94:print.h       **** {
 561              		.loc 2 94 0
 562              		.cfi_startproc
 563              		@ args = 0, pretend = 0, frame = 256
 564              		@ frame_needed = 0, uses_anonymous_args = 0
 565 0000 10B5     		push	{r4, lr}
 566              		.cfi_def_cfa_offset 8
 567              		.cfi_offset 4, -8
 568              		.cfi_offset 14, -4
 569 0002 C0B0     		sub	sp, sp, #256
 570              		.cfi_def_cfa_offset 264
  95:print.h       ****     char outputBuffer[256];
  96:print.h       ****     sprintf(outputBuffer, " Weight application initialized at (%s %s)\r\n", __DATE__, __TIME__);
 571              		.loc 2 96 0
 572 0004 0B4B     		ldr	r3, .L41
 573 0006 0C4A     		ldr	r2, .L41+4
 574 0008 0C49     		ldr	r1, .L41+8
 575 000a 6846     		mov	r0, sp
 576 000c FFF7FEFF 		bl	sprintf
 577              	.LVL67:
  97:print.h       ****     UART_1_PutString(outputBuffer);
 578              		.loc 2 97 0
 579 0010 6846     		mov	r0, sp
 580 0012 FFF7FEFF 		bl	UART_1_PutString
 581              	.LVL68:
  98:print.h       ****     UART_1_PutString("==============================\r\n");
 582              		.loc 2 98 0
 583 0016 0A4C     		ldr	r4, .L41+12
 584 0018 2046     		mov	r0, r4
 585 001a FFF7FEFF 		bl	UART_1_PutString
 586              	.LVL69:
  99:print.h       ****     UART_1_PutString("Press 1 to do X\r\n");
 587              		.loc 2 99 0
 588 001e 0948     		ldr	r0, .L41+16
 589 0020 FFF7FEFF 		bl	UART_1_PutString
 590              	.LVL70:
 100:print.h       ****     UART_1_PutString("Press 2 to do Y\r\n");
 591              		.loc 2 100 0
 592 0024 0848     		ldr	r0, .L41+20
 593 0026 FFF7FEFF 		bl	UART_1_PutString
 594              	.LVL71:
 101:print.h       ****     UART_1_PutString("==============================\r\n");
 595              		.loc 2 101 0
 596 002a 2046     		mov	r0, r4
 597 002c FFF7FEFF 		bl	UART_1_PutString
 598              	.LVL72:
 102:print.h       **** }
 599              		.loc 2 102 0
 600 0030 40B0     		add	sp, sp, #256
 601              		.cfi_def_cfa_offset 8
 602              		@ sp needed
 603 0032 10BD     		pop	{r4, pc}
 604              	.L42:
 605              		.align	2
 606              	.L41:
 607 0034 40000000 		.word	.LC6
ARM GAS  C:\Users\lundc\AppData\Local\Temp\ccdKBqti.s 			page 15


 608 0038 4C000000 		.word	.LC7
 609 003c 58000000 		.word	.LC8
 610 0040 88000000 		.word	.LC9
 611 0044 AC000000 		.word	.LC10
 612 0048 C0000000 		.word	.LC11
 613              		.cfi_endproc
 614              	.LFE73:
 615              		.size	startMessage, .-startMessage
 616              		.section	.text.clearTerminal,"ax",%progbits
 617              		.align	2
 618              		.global	clearTerminal
 619              		.thumb
 620              		.thumb_func
 621              		.type	clearTerminal, %function
 622              	clearTerminal:
 623              	.LFB74:
 103:print.h       **** 
 104:print.h       **** void clearTerminal(void)
 105:print.h       **** {
 624              		.loc 2 105 0
 625              		.cfi_startproc
 626              		@ args = 0, pretend = 0, frame = 0
 627              		@ frame_needed = 0, uses_anonymous_args = 0
 628 0000 08B5     		push	{r3, lr}
 629              		.cfi_def_cfa_offset 8
 630              		.cfi_offset 3, -8
 631              		.cfi_offset 14, -4
 106:print.h       ****     UART_1_PutString("\033c"); // Reset terminal screen
 632              		.loc 2 106 0
 633 0002 0648     		ldr	r0, .L45
 634 0004 FFF7FEFF 		bl	UART_1_PutString
 635              	.LVL73:
 107:print.h       ****     CyDelay(20);
 636              		.loc 2 107 0
 637 0008 1420     		movs	r0, #20
 638 000a FFF7FEFF 		bl	CyDelay
 639              	.LVL74:
 108:print.h       ****     UART_1_PutString("\033[2J"); // Clear terminal screen
 640              		.loc 2 108 0
 641 000e 0448     		ldr	r0, .L45+4
 642 0010 FFF7FEFF 		bl	UART_1_PutString
 643              	.LVL75:
 109:print.h       ****     CyDelay(20);
 644              		.loc 2 109 0
 645 0014 1420     		movs	r0, #20
 646 0016 FFF7FEFF 		bl	CyDelay
 647              	.LVL76:
 648 001a 08BD     		pop	{r3, pc}
 649              	.L46:
 650              		.align	2
 651              	.L45:
 652 001c D4000000 		.word	.LC12
 653 0020 D8000000 		.word	.LC13
 654              		.cfi_endproc
 655              	.LFE74:
 656              		.size	clearTerminal, .-clearTerminal
 657              		.section	.text.main,"ax",%progbits
ARM GAS  C:\Users\lundc\AppData\Local\Temp\ccdKBqti.s 			page 16


 658              		.align	2
 659              		.global	main
 660              		.thumb
 661              		.thumb_func
 662              		.type	main, %function
 663              	main:
 664              	.LFB75:
 665              		.file 3 "main.c"
   1:main.c        **** // Headers and libraries
   2:main.c        **** #include "project.h"
   3:main.c        **** #include "weight.h"
   4:main.c        **** #include "print.h"
   5:main.c        **** #include <stdio.h>
   6:main.c        **** 
   7:main.c        **** int main(void)
   8:main.c        **** {
 666              		.loc 3 8 0
 667              		.cfi_startproc
 668              		@ Volatile: function does not return.
 669              		@ args = 0, pretend = 0, frame = 0
 670              		@ frame_needed = 0, uses_anonymous_args = 0
 671 0000 08B5     		push	{r3, lr}
 672              		.cfi_def_cfa_offset 8
 673              		.cfi_offset 3, -8
 674              		.cfi_offset 14, -4
   9:main.c        ****     initPrint();
 675              		.loc 3 9 0
 676 0002 FFF7FEFF 		bl	initPrint
 677              	.LVL77:
  10:main.c        ****     initWeight();
 678              		.loc 3 10 0
 679 0006 FFF7FEFF 		bl	initWeight
 680              	.LVL78:
  11:main.c        ****     
  12:main.c        ****     // Initial codeblock to set scale to zero
  13:main.c        ****     CyDelay(500);
 681              		.loc 3 13 0
 682 000a 4FF4FA70 		mov	r0, #500
 683 000e FFF7FEFF 		bl	CyDelay
 684              	.LVL79:
  14:main.c        ****     convertV2G();
 685              		.loc 3 14 0
 686 0012 FFF7FEFF 		bl	convertV2G
 687              	.LVL80:
  15:main.c        ****     initTARE();
 688              		.loc 3 15 0
 689 0016 FFF7FEFF 		bl	initTARE
 690              	.LVL81:
 691              	.L48:
  16:main.c        **** 
  17:main.c        ****     while(1)
  18:main.c        ****     {
  19:main.c        ****         printTerminal(convertV2G());
 692              		.loc 3 19 0 discriminator 1
 693 001a FFF7FEFF 		bl	convertV2G
 694              	.LVL82:
 695 001e FFF7FEFF 		bl	printTerminal
ARM GAS  C:\Users\lundc\AppData\Local\Temp\ccdKBqti.s 			page 17


 696              	.LVL83:
  20:main.c        ****         printOLED(convertV2G());
 697              		.loc 3 20 0 discriminator 1
 698 0022 FFF7FEFF 		bl	convertV2G
 699              	.LVL84:
 700 0026 FFF7FEFF 		bl	printOLED
 701              	.LVL85:
  21:main.c        ****         CyDelay(500);
 702              		.loc 3 21 0 discriminator 1
 703 002a 4FF4FA70 		mov	r0, #500
 704 002e FFF7FEFF 		bl	CyDelay
 705              	.LVL86:
 706 0032 F2E7     		b	.L48
 707              		.cfi_endproc
 708              	.LFE75:
 709              		.size	main, .-main
 710              		.global	addressOLED
 711              		.global	loop
 712              		.global	globalWeight
 713              		.global	globalTARE
 714              		.section	.rodata
 715              		.align	2
 716              		.type	addressOLED, %object
 717              		.size	addressOLED, 4
 718              	addressOLED:
 719 0000 3C000000 		.word	60
 720              		.type	loop, %object
 721              		.size	loop, 4
 722              	loop:
 723 0004 0A000000 		.word	10
 724              		.section	.rodata.str1.4,"aMS",%progbits,1
 725              		.align	2
 726              	.LC0:
 727 0000 252E3366 		.ascii	"%.3f\000"
 727      00
 728 0005 000000   		.space	3
 729              	.LC1:
 730 0008 57656967 		.ascii	"Weight: \000"
 730      68743A20 
 730      00
 731 0011 000000   		.space	3
 732              	.LC2:
 733 0014 206B6720 		.ascii	" kg \015\012\000"
 733      0D0A00
 734 001b 00       		.space	1
 735              	.LC3:
 736 001c 2D2D2D2D 		.ascii	"-------------------\000"
 736      2D2D2D2D 
 736      2D2D2D2D 
 736      2D2D2D2D 
 736      2D2D2D00 
 737              	.LC4:
 738 0030 252E3366 		.ascii	"%.3f kg\000"
 738      206B6700 
 739              	.LC5:
 740 0038 252E3166 		.ascii	"%.1f N\000"
 740      204E00
ARM GAS  C:\Users\lundc\AppData\Local\Temp\ccdKBqti.s 			page 18


 741 003f 00       		.space	1
 742              	.LC6:
 743 0040 31333A32 		.ascii	"13:23:44\000"
 743      333A3434 
 743      00
 744 0049 000000   		.space	3
 745              	.LC7:
 746 004c 4F637420 		.ascii	"Oct 26 2022\000"
 746      32362032 
 746      30323200 
 747              	.LC8:
 748 0058 20576569 		.ascii	" Weight application initialized at (%s %s)\015\012\000"
 748      67687420 
 748      6170706C 
 748      69636174 
 748      696F6E20 
 749 0085 000000   		.space	3
 750              	.LC9:
 751 0088 3D3D3D3D 		.ascii	"==============================\015\012\000"
 751      3D3D3D3D 
 751      3D3D3D3D 
 751      3D3D3D3D 
 751      3D3D3D3D 
 752 00a9 000000   		.space	3
 753              	.LC10:
 754 00ac 50726573 		.ascii	"Press 1 to do X\015\012\000"
 754      73203120 
 754      746F2064 
 754      6F20580D 
 754      0A00
 755 00be 0000     		.space	2
 756              	.LC11:
 757 00c0 50726573 		.ascii	"Press 2 to do Y\015\012\000"
 757      73203220 
 757      746F2064 
 757      6F20590D 
 757      0A00
 758 00d2 0000     		.space	2
 759              	.LC12:
 760 00d4 1B6300   		.ascii	"\033c\000"
 761 00d7 00       		.space	1
 762              	.LC13:
 763 00d8 1B5B324A 		.ascii	"\033[2J\000"
 763      00
 764              		.bss
 765              		.align	2
 766              		.set	.LANCHOR0,. + 0
 767              		.type	globalTARE, %object
 768              		.size	globalTARE, 4
 769              	globalTARE:
 770 0000 00000000 		.space	4
 771              		.type	globalWeight, %object
 772              		.size	globalWeight, 4
 773              	globalWeight:
 774 0004 00000000 		.space	4
 775              		.text
 776              	.Letext0:
ARM GAS  C:\Users\lundc\AppData\Local\Temp\ccdKBqti.s 			page 19


 777              		.file 4 "c:\\program files (x86)\\cypress\\psoc creator\\4.4\\psoc creator\\import\\gnu\\arm\\5.4.
 778              		.file 5 "c:\\program files (x86)\\cypress\\psoc creator\\4.4\\psoc creator\\import\\gnu\\arm\\5.4.
 779              		.file 6 "Generated_Source\\PSoC5/core_cm3.h"
 780              		.file 7 "Generated_Source\\PSoC5/UART_1.h"
 781              		.file 8 "Generated_Source\\PSoC5/isr_pin_1.h"
 782              		.file 9 "Generated_Source\\PSoC5/ADC_SAR_1.h"
 783              		.file 10 "Generated_Source\\PSoC5/I2COLED.h"
 784              		.file 11 "ssd1306.h"
 785              		.file 12 "Generated_Source\\PSoC5/isr_uart_rx.h"
 786              		.file 13 "c:\\program files (x86)\\cypress\\psoc creator\\4.4\\psoc creator\\import\\gnu\\arm\\5.4
 787              		.file 14 "Generated_Source\\PSoC5/CyLib.h"